target datalayout = "e-m:e-p270:32:32-p271:32:32-p272:64:64-i64:64-i128:128-f80:128-n8:16:32:64-S128"
target triple = "x86_64-pc-linux-gnu"

%struct.H5HF_free_section_t = type { %struct.H5FS_section_info_t, %union.anon }
%struct.H5FS_section_info_t = type { i64, i64, i32, i32 }
%union.anon = type { %struct.anon.1 }
%struct.anon.1 = type { %union.anon.2, i32, i32, i32, ptr, i32, i64, i32, i32, i32, ptr, i32, ptr }
%union.anon.2 = type { ptr }
%struct.H5HF_hdr_t = type { %struct.H5C_cache_entry_t, i32, i32, i8, i8, i8, i8, %struct.H5HF_dtable_t, i64, i64, i32, i64, i64, %struct.H5O_pline_t, i64, i32, i64, i64, i64, i64, i64, i64, i64, i64, i64, i64, i64, i32, ptr, i64, i8, i8, i8, ptr, i32, ptr, %struct.H5HF_block_iter_t, ptr, i64, i8, i8, i64, i8, i8, i8, i8 }
%struct.H5C_cache_entry_t = type { ptr, i64, i64, ptr, i8, ptr, i8, i8, i8, i8, i32, i8, i8, i8, i8, i8, i32, ptr, i32, i32, i32, i32, i32, i8, i8, ptr, ptr, ptr, ptr, ptr, ptr, i8, i32, i8, i64, ptr, i64, i64, i32, i8, i32, i32, i8, ptr, ptr, ptr }
%struct.H5HF_dtable_t = type { %struct.H5HF_dtable_cparam_t, i64, i32, i32, i32, i32, i32, i32, i32, i64, ptr, ptr, ptr, ptr }
%struct.H5HF_dtable_cparam_t = type { i32, i64, i64, i32, i32 }
%struct.H5O_pline_t = type { %struct.H5O_shared_t, i32, i64, i64, ptr }
%struct.H5O_shared_t = type { i32, ptr, i32, %union.anon.3 }
%union.anon.3 = type { %struct.H5O_mesg_loc_t }
%struct.H5O_mesg_loc_t = type { i32, i64 }
%struct.H5HF_block_iter_t = type { i8, ptr }

@H5HF_init_g = external global i8, align 1
@H5_libterm_g = external global i8, align 1

; Function Attrs: nounwind uwtable
define internal i32 @H5HF__sect_indirect_valid(ptr noundef %0, ptr noundef %1) #0 {
  %3 = alloca ptr, align 8
  %4 = alloca ptr, align 8
  %5 = alloca i32, align 4
  %6 = alloca i32, align 4
  %7 = alloca i32, align 4
  %8 = alloca i32, align 4
  %9 = alloca i32, align 4
  %10 = alloca i32, align 4
  %11 = alloca i32, align 4
  %12 = alloca i32, align 4
  %13 = alloca ptr, align 8
  %14 = alloca ptr, align 8
  %15 = alloca ptr, align 8
  %16 = alloca ptr, align 8
  store ptr %0, ptr %3, align 8, !tbaa !22
  store ptr %1, ptr %4, align 8, !tbaa !23
  call void @llvm.lifetime.start.p0(i64 4, ptr %5) #7
  call void @llvm.lifetime.start.p0(i64 4, ptr %6) #7
  call void @llvm.lifetime.start.p0(i64 4, ptr %7) #7
  call void @llvm.lifetime.start.p0(i64 4, ptr %8) #7
  call void @llvm.lifetime.start.p0(i64 4, ptr %9) #7
  call void @llvm.lifetime.start.p0(i64 4, ptr %10) #7
  %17 = load i8, ptr @H5HF_init_g, align 1, !tbaa !13, !range !15, !noundef !16
  %18 = trunc i8 %17 to i1
  br i1 %18, label %23, label %19

19:                                               ; preds = %2
  %20 = load i8, ptr @H5_libterm_g, align 1, !tbaa !13, !range !15, !noundef !16
  %21 = trunc i8 %20 to i1
  %22 = xor i1 %21, true
  br label %23

23:                                               ; preds = %19, %2
  %24 = phi i1 [ true, %2 ], [ %22, %19 ]
  %25 = xor i1 %24, true
  %26 = xor i1 %25, true
  %27 = zext i1 %26 to i32
  %28 = sext i32 %27 to i64
  %29 = call i64 @llvm.expect.i64(i64 %28, i64 1)
  %30 = icmp ne i64 %29, 0
  br i1 %30, label %31, label %169

31:                                               ; preds = %23
  %32 = load ptr, ptr %4, align 8, !tbaa !23
  %33 = getelementptr inbounds nuw %struct.H5HF_free_section_t, ptr %32, i32 0, i32 1
  %34 = getelementptr inbounds nuw %struct.anon.1, ptr %33, i32 0, i32 1
  %35 = load i32, ptr %34, align 8, !tbaa !63
  store i32 %35, ptr %5, align 4, !tbaa !11
  %36 = load ptr, ptr %4, align 8, !tbaa !23
  %37 = getelementptr inbounds nuw %struct.H5HF_free_section_t, ptr %36, i32 0, i32 1
  %38 = getelementptr inbounds nuw %struct.anon.1, ptr %37, i32 0, i32 2
  %39 = load i32, ptr %38, align 4, !tbaa !63
  store i32 %39, ptr %6, align 4, !tbaa !11
  %40 = load i32, ptr %5, align 4, !tbaa !11
  %41 = load ptr, ptr %3, align 8, !tbaa !22
  %42 = getelementptr inbounds nuw %struct.H5HF_hdr_t, ptr %41, i32 0, i32 7
  %43 = getelementptr inbounds nuw %struct.H5HF_dtable_t, ptr %42, i32 0, i32 0
  %44 = getelementptr inbounds nuw %struct.H5HF_dtable_cparam_t, ptr %43, i32 0, i32 0
  %45 = load i32, ptr %44, align 8, !tbaa !86
  %46 = mul i32 %40, %45
  %47 = load i32, ptr %6, align 4, !tbaa !11
  %48 = add i32 %46, %47
  store i32 %48, ptr %7, align 4, !tbaa !11
  %49 = load i32, ptr %7, align 4, !tbaa !11
  %50 = load ptr, ptr %4, align 8, !tbaa !23
  %51 = getelementptr inbounds nuw %struct.H5HF_free_section_t, ptr %50, i32 0, i32 1
  %52 = getelementptr inbounds nuw %struct.anon.1, ptr %51, i32 0, i32 3
  %53 = load i32, ptr %52, align 8, !tbaa !63
  %54 = add i32 %49, %53
  %55 = sub i32 %54, 1
  store i32 %55, ptr %9, align 4, !tbaa !11
  %56 = load i32, ptr %9, align 4, !tbaa !11
  %57 = load ptr, ptr %3, align 8, !tbaa !22
  %58 = getelementptr inbounds nuw %struct.H5HF_hdr_t, ptr %57, i32 0, i32 7
  %59 = getelementptr inbounds nuw %struct.H5HF_dtable_t, ptr %58, i32 0, i32 0
  %60 = getelementptr inbounds nuw %struct.H5HF_dtable_cparam_t, ptr %59, i32 0, i32 0
  %61 = load i32, ptr %60, align 8, !tbaa !86
  %62 = udiv i32 %56, %61
  store i32 %62, ptr %8, align 4, !tbaa !11
  %63 = load ptr, ptr %4, align 8, !tbaa !23
  %64 = getelementptr inbounds nuw %struct.H5HF_free_section_t, ptr %63, i32 0, i32 1
  %65 = getelementptr inbounds nuw %struct.anon.1, ptr %64, i32 0, i32 9
  %66 = load i32, ptr %65, align 8, !tbaa !63
  %67 = icmp ugt i32 %66, 0
  br i1 %67, label %68, label %118

68:                                               ; preds = %31
  call void @llvm.lifetime.start.p0(i64 4, ptr %11) #7
  call void @llvm.lifetime.start.p0(i64 4, ptr %12) #7
  %69 = load i32, ptr %8, align 4, !tbaa !11
  %70 = load ptr, ptr %3, align 8, !tbaa !22
  %71 = getelementptr inbounds nuw %struct.H5HF_hdr_t, ptr %70, i32 0, i32 7
  %72 = getelementptr inbounds nuw %struct.H5HF_dtable_t, ptr %71, i32 0, i32 4
  %73 = load i32, ptr %72, align 8, !tbaa !96
  %74 = icmp uge i32 %69, %73
  br i1 %74, label %75, label %81

75:                                               ; preds = %68
  %76 = load ptr, ptr %3, align 8, !tbaa !22
  %77 = getelementptr inbounds nuw %struct.H5HF_hdr_t, ptr %76, i32 0, i32 7
  %78 = getelementptr inbounds nuw %struct.H5HF_dtable_t, ptr %77, i32 0, i32 4
  %79 = load i32, ptr %78, align 8, !tbaa !96
  %80 = sub i32 %79, 1
  store i32 %80, ptr %12, align 4, !tbaa !11
  br label %83

81:                                               ; preds = %68
  %82 = load i32, ptr %8, align 4, !tbaa !11
  store i32 %82, ptr %12, align 4, !tbaa !11
  br label %83

83:                                               ; preds = %81, %75
  %84 = load i32, ptr %12, align 4, !tbaa !11
  %85 = load i32, ptr %5, align 4, !tbaa !11
  %86 = sub i32 %84, %85
  %87 = add i32 %86, 1
  store i32 %87, ptr %11, align 4, !tbaa !11
  store i32 0, ptr %10, align 4, !tbaa !11
  br label %88

88:                                               ; preds = %114, %83
  %89 = load i32, ptr %10, align 4, !tbaa !11
  %90 = load i32, ptr %11, align 4, !tbaa !11
  %91 = icmp ult i32 %89, %90
  br i1 %91, label %92, label %117

92:                                               ; preds = %88
  call void @llvm.lifetime.start.p0(i64 8, ptr %13) #7
  %93 = load ptr, ptr %4, align 8, !tbaa !23
  %94 = getelementptr inbounds nuw %struct.H5HF_free_section_t, ptr %93, i32 0, i32 1
  %95 = getelementptr inbounds nuw %struct.anon.1, ptr %94, i32 0, i32 10
  %96 = load ptr, ptr %95, align 8, !tbaa !63
  %97 = load i32, ptr %10, align 4, !tbaa !11
  %98 = zext i32 %97 to i64
  %99 = getelementptr inbounds nuw ptr, ptr %96, i64 %98
  %100 = load ptr, ptr %99, align 8, !tbaa !23
  store ptr %100, ptr %13, align 8, !tbaa !23
  %101 = load i32, ptr %10, align 4, !tbaa !11
  %102 = icmp ugt i32 %101, 0
  br i1 %102, label %103, label %113

103:                                              ; preds = %92
  call void @llvm.lifetime.start.p0(i64 8, ptr %14) #7
  %104 = load ptr, ptr %4, align 8, !tbaa !23
  %105 = getelementptr inbounds nuw %struct.H5HF_free_section_t, ptr %104, i32 0, i32 1
  %106 = getelementptr inbounds nuw %struct.anon.1, ptr %105, i32 0, i32 10
  %107 = load ptr, ptr %106, align 8, !tbaa !63
  %108 = load i32, ptr %10, align 4, !tbaa !11
  %109 = sub i32 %108, 1
  %110 = zext i32 %109 to i64
  %111 = getelementptr inbounds nuw ptr, ptr %107, i64 %110
  %112 = load ptr, ptr %111, align 8, !tbaa !23
  store ptr %112, ptr %14, align 8, !tbaa !23
  call void @llvm.lifetime.end.p0(i64 8, ptr %14) #7
  br label %113

113:                                              ; preds = %103, %92
  call void @llvm.lifetime.end.p0(i64 8, ptr %13) #7
  br label %114

114:                                              ; preds = %113
  %115 = load i32, ptr %10, align 4, !tbaa !11
  %116 = add i32 %115, 1
  store i32 %116, ptr %10, align 4, !tbaa !11
  br label %88, !llvm.loop !112

117:                                              ; preds = %88
  call void @llvm.lifetime.end.p0(i64 4, ptr %12) #7
  call void @llvm.lifetime.end.p0(i64 4, ptr %11) #7
  br label %118

118:                                              ; preds = %117, %31
  %119 = load ptr, ptr %4, align 8, !tbaa !23
  %120 = getelementptr inbounds nuw %struct.H5HF_free_section_t, ptr %119, i32 0, i32 1
  %121 = getelementptr inbounds nuw %struct.anon.1, ptr %120, i32 0, i32 11
  %122 = load i32, ptr %121, align 8, !tbaa !63
  %123 = icmp ugt i32 %122, 0
  br i1 %123, label %124, label %168

124:                                              ; preds = %118
  %125 = load ptr, ptr %4, align 8, !tbaa !23
  %126 = getelementptr inbounds nuw %struct.H5HF_free_section_t, ptr %125, i32 0, i32 0
  %127 = getelementptr inbounds nuw %struct.H5FS_section_info_t, ptr %126, i32 0, i32 3
  %128 = load i32, ptr %127, align 4, !tbaa !38
  %129 = icmp eq i32 %128, 0
  br i1 %129, label %130, label %131

130:                                              ; preds = %124
  br label %131

131:                                              ; preds = %130, %124
  store i32 0, ptr %10, align 4, !tbaa !11
  br label %132

132:                                              ; preds = %164, %131
  %133 = load i32, ptr %10, align 4, !tbaa !11
  %134 = load ptr, ptr %4, align 8, !tbaa !23
  %135 = getelementptr inbounds nuw %struct.H5HF_free_section_t, ptr %134, i32 0, i32 1
  %136 = getelementptr inbounds nuw %struct.anon.1, ptr %135, i32 0, i32 11
  %137 = load i32, ptr %136, align 8, !tbaa !63
  %138 = icmp ult i32 %133, %137
  br i1 %138, label %139, label %167

139:                                              ; preds = %132
  call void @llvm.lifetime.start.p0(i64 8, ptr %15) #7
  %140 = load ptr, ptr %4, align 8, !tbaa !23
  %141 = getelementptr inbounds nuw %struct.H5HF_free_section_t, ptr %140, i32 0, i32 1
  %142 = getelementptr inbounds nuw %struct.anon.1, ptr %141, i32 0, i32 12
  %143 = load ptr, ptr %142, align 8, !tbaa !63
  %144 = load i32, ptr %10, align 4, !tbaa !11
  %145 = zext i32 %144 to i64
  %146 = getelementptr inbounds nuw ptr, ptr %143, i64 %145
  %147 = load ptr, ptr %146, align 8, !tbaa !23
  store ptr %147, ptr %15, align 8, !tbaa !23
  %148 = load i32, ptr %10, align 4, !tbaa !11
  %149 = icmp ugt i32 %148, 0
  br i1 %149, label %150, label %160

150:                                              ; preds = %139
  call void @llvm.lifetime.start.p0(i64 8, ptr %16) #7
  %151 = load ptr, ptr %4, align 8, !tbaa !23
  %152 = getelementptr inbounds nuw %struct.H5HF_free_section_t, ptr %151, i32 0, i32 1
  %153 = getelementptr inbounds nuw %struct.anon.1, ptr %152, i32 0, i32 12
  %154 = load ptr, ptr %153, align 8, !tbaa !63
  %155 = load i32, ptr %10, align 4, !tbaa !11
  %156 = sub i32 %155, 1
  %157 = zext i32 %156 to i64
  %158 = getelementptr inbounds nuw ptr, ptr %154, i64 %157
  %159 = load ptr, ptr %158, align 8, !tbaa !23
  store ptr %159, ptr %16, align 8, !tbaa !23
  call void @llvm.lifetime.end.p0(i64 8, ptr %16) #7
  br label %160

160:                                              ; preds = %150, %139
  %161 = load ptr, ptr %3, align 8, !tbaa !22
  %162 = load ptr, ptr %15, align 8, !tbaa !23
  %163 = call i32 @H5HF__sect_indirect_valid(ptr noundef %161, ptr noundef %162)
  call void @llvm.lifetime.end.p0(i64 8, ptr %15) #7
  br label %164

164:                                              ; preds = %160
  %165 = load i32, ptr %10, align 4, !tbaa !11
  %166 = add i32 %165, 1
  store i32 %166, ptr %10, align 4, !tbaa !11
  br label %132, !llvm.loop !113

167:                                              ; preds = %132
  br label %168

168:                                              ; preds = %167, %118
  br label %169

169:                                              ; preds = %168, %23
  call void @llvm.lifetime.end.p0(i64 4, ptr %10) #7
  call void @llvm.lifetime.end.p0(i64 4, ptr %9) #7
  call void @llvm.lifetime.end.p0(i64 4, ptr %8) #7
  call void @llvm.lifetime.end.p0(i64 4, ptr %7) #7
  call void @llvm.lifetime.end.p0(i64 4, ptr %6) #7
  call void @llvm.lifetime.end.p0(i64 4, ptr %5) #7
  ret i32 0
}