; Function Attrs: nofree nosync nounwind memory(read, inaccessiblemem: none) uwtable
define internal fastcc void @H5HF__sect_indirect_valid(ptr noundef readonly captures(none) %0) unnamed_addr #4 {
  %2 = load i8, ptr @H5HF_init_g, align 1, !tbaa !3, !range !7, !noundef !8
  %3 = trunc nuw i8 %2 to i1
  %4 = load i8, ptr @H5_libterm_g, align 1, !range !7
  %5 = trunc nuw i8 %4 to i1
  %6 = xor i1 %5, true
  %7 = select i1 %3, i1 true, i1 %6
  br i1 %7, label %.loopexit42, label %.loopexit, !prof !9

.loopexit42:                                      ; preds = %1
  %8 = getelementptr inbounds nuw i8, ptr %0, i64 96
  %9 = load i32, ptr %8, align 8, !tbaa !26
  %.not39 = icmp eq i32 %9, 0
  br i1 %.not39, label %.loopexit, label %.preheader

.preheader:                                       ; preds = %.loopexit42
  %10 = getelementptr inbounds nuw i8, ptr %0, i64 104
  %11 = load ptr, ptr %10, align 8, !tbaa !26
  %wide.trip.count = zext i32 %9 to i64
  br label %12

12:                                               ; preds = %.preheader, %12
  %indvars.iv = phi i64 [ 0, %.preheader ], [ %indvars.iv.next, %12 ]
  %13 = getelementptr inbounds nuw ptr, ptr %11, i64 %indvars.iv
  %14 = load ptr, ptr %13, align 8, !tbaa !16
  tail call fastcc void @H5HF__sect_indirect_valid(ptr noundef %14)
  %indvars.iv.next = add nuw nsw i64 %indvars.iv, 1
  %exitcond.not = icmp eq i64 %indvars.iv.next, %wide.trip.count
  br i1 %exitcond.not, label %.loopexit, label %12, !llvm.loop !93

.loopexit:                                        ; preds = %12, %.loopexit42, %1
  ret void
}